
a.out:     file format elf64-powerpcle


Disassembly of section .init:

0000000000000580 <00000037.plt_call.__gmon_start__>:
 580:	18 00 41 f8 	std     r2,24(r1)
 584:	ff ff 82 3d 	addis   r12,r2,-1
 588:	f8 7f 8c e9 	ld      r12,32760(r12)
 58c:	a6 03 89 7d 	mtctr   r12
 590:	20 04 80 4e 	bctr
	...

00000000000005a0 <_init>:
 5a0:	02 00 4c 3c 	addis   r2,r12,2
 5a4:	60 79 42 38 	addi    r2,r2,31072
 5a8:	a6 02 08 7c 	mflr    r0
 5ac:	10 00 01 f8 	std     r0,16(r1)
 5b0:	a1 ff 21 f8 	stdu    r1,-96(r1)
 5b4:	00 00 00 60 	nop
 5b8:	08 80 02 e8 	ld      r0,-32760(r2)
 5bc:	00 00 a0 2f 	cmpdi   cr7,r0,0
 5c0:	0c 00 fe 41 	beq+    cr7,5cc <_init+0x2c>
 5c4:	bd ff ff 4b 	bl      580 <00000037.plt_call.__gmon_start__>
 5c8:	18 00 41 e8 	ld      r2,24(r1)
 5cc:	60 00 21 38 	addi    r1,r1,96
 5d0:	10 00 01 e8 	ld      r0,16(r1)
 5d4:	a6 03 08 7c 	mtlr    r0
 5d8:	20 00 80 4e 	blr

Disassembly of section .text:

00000000000005e0 <0000004a.plt_call.__cxa_finalize@@GLIBC_2.17>:
 5e0:	18 00 41 f8 	std     r2,24(r1)
 5e4:	ff ff 82 3d 	addis   r12,r2,-1
 5e8:	e8 7f 8c e9 	ld      r12,32744(r12)
 5ec:	a6 03 89 7d 	mtctr   r12
 5f0:	20 04 80 4e 	bctr
	...

0000000000000600 <0000004a.plt_call.__libc_start_main@@GLIBC_2.17>:
 600:	18 00 41 f8 	std     r2,24(r1)
 604:	ff ff 82 3d 	addis   r12,r2,-1
 608:	f0 7f 8c e9 	ld      r12,32752(r12)
 60c:	a6 03 89 7d 	mtctr   r12
 610:	20 04 80 4e 	bctr
	...

0000000000000620 <main>:
 620:	02 00 4c 3c 	addis   r2,r12,2
 624:	e0 78 42 38 	addi    r2,r2,30944
 628:	64 00 c0 38 	li      r6,100
 62c:	00 00 00 60 	nop
 630:	34 84 e2 38 	addi    r7,r2,-31692
 634:	00 00 00 60 	nop
 638:	14 81 02 39 	addi    r8,r2,-32492
 63c:	00 00 00 60 	nop
 640:	a4 82 42 39 	addi    r10,r2,-32092
 644:	00 00 20 39 	li      r9,0
 648:	a6 03 c9 7c 	mtctr   r6
 64c:	14 00 00 48 	b       660 <main+0x40>
 650:	00 00 00 60 	nop
 654:	00 00 00 60 	nop
 658:	00 00 00 60 	nop
 65c:	00 00 42 60 	ori     r2,r2,0
 660:	2e 4c 08 7c 	lfsx    f0,r8,r9
 664:	2e 4c 8a 7d 	lfsx    f12,r10,r9
 668:	2a 60 00 ec 	fadds   f0,f0,f12
 66c:	2e 4d 07 7c 	stfsx   f0,r7,r9
 670:	04 00 29 39 	addi    r9,r9,4
 674:	ec ff 00 42 	bdnz    660 <main+0x40>
 678:	00 00 60 38 	li      r3,0
 67c:	20 00 80 4e 	blr
	...

000000000000068c <_start>:
 68c:	02 00 4c 3c 	addis   r2,r12,2
 690:	74 78 42 38 	addi    r2,r2,30836
 694:	78 0b 29 7c 	mr      r9,r1
 698:	e4 06 21 78 	rldicr  r1,r1,0,59
 69c:	00 00 00 38 	li      r0,0
 6a0:	81 ff 21 f8 	stdu    r1,-128(r1)
 6a4:	a6 03 08 7c 	mtlr    r0
 6a8:	00 00 01 f8 	std     r0,0(r1)
 6ac:	10 80 02 e9 	ld      r8,-32752(r2)
 6b0:	50 ff ff 4b 	b       600 <0000004a.plt_call.__libc_start_main@@GLIBC_2.17>
 6b4:	00 00 00 60 	nop
	...
 6c0:	40 20 0c 00 	.long 0xc2040
 6c4:	2c 00 00 00 	.long 0x2c
 6c8:	06 00 5f 73 	andi.   r31,r26,6
 6cc:	74 61 72 74 	andis.  r18,r3,24948

00000000000006d0 <deregister_tm_clones>:
 6d0:	02 00 4c 3c 	addis   r2,r12,2
 6d4:	30 78 42 38 	addi    r2,r2,30768
 6d8:	00 00 00 60 	nop
 6dc:	00 00 00 60 	nop
 6e0:	10 81 62 38 	addi    r3,r2,-32496
 6e4:	10 81 22 39 	addi    r9,r2,-32496
 6e8:	00 18 29 7c 	cmpd    r9,r3
 6ec:	20 00 82 4d 	beqlr
 6f0:	00 00 00 60 	nop
 6f4:	18 80 82 e9 	ld      r12,-32744(r2)
 6f8:	00 00 2c 2c 	cmpdi   r12,0
 6fc:	20 00 82 4d 	beqlr
 700:	a6 02 08 7c 	mflr    r0
 704:	10 00 01 f8 	std     r0,16(r1)
 708:	e1 ff 21 f8 	stdu    r1,-32(r1)
 70c:	a6 03 89 7d 	mtctr   r12
 710:	18 00 41 f8 	std     r2,24(r1)
 714:	21 04 80 4e 	bctrl
 718:	18 00 41 e8 	ld      r2,24(r1)
 71c:	20 00 21 38 	addi    r1,r1,32
 720:	10 00 01 e8 	ld      r0,16(r1)
 724:	a6 03 08 7c 	mtlr    r0
 728:	20 00 80 4e 	blr
 72c:	00 00 42 60 	ori     r2,r2,0

0000000000000730 <register_tm_clones>:
 730:	02 00 4c 3c 	addis   r2,r12,2
 734:	d0 77 42 38 	addi    r2,r2,30672
 738:	00 00 00 60 	nop
 73c:	00 00 00 60 	nop
 740:	10 81 62 38 	addi    r3,r2,-32496
 744:	10 81 82 38 	addi    r4,r2,-32496
 748:	50 20 83 7c 	subf    r4,r3,r4
 74c:	74 1e 84 7c 	sradi   r4,r4,3
 750:	74 0e 84 7c 	sradi   r4,r4,1
 754:	95 01 84 7c 	addze.  r4,r4
 758:	20 00 82 4d 	beqlr
 75c:	00 00 00 60 	nop
 760:	20 80 82 e9 	ld      r12,-32736(r2)
 764:	00 00 2c 2c 	cmpdi   r12,0
 768:	20 00 82 4d 	beqlr
 76c:	a6 02 08 7c 	mflr    r0
 770:	10 00 01 f8 	std     r0,16(r1)
 774:	e1 ff 21 f8 	stdu    r1,-32(r1)
 778:	a6 03 89 7d 	mtctr   r12
 77c:	18 00 41 f8 	std     r2,24(r1)
 780:	21 04 80 4e 	bctrl
 784:	18 00 41 e8 	ld      r2,24(r1)
 788:	20 00 21 38 	addi    r1,r1,32
 78c:	10 00 01 e8 	ld      r0,16(r1)
 790:	a6 03 08 7c 	mtlr    r0
 794:	20 00 80 4e 	blr
 798:	00 00 00 60 	nop
 79c:	00 00 42 60 	ori     r2,r2,0

00000000000007a0 <__do_global_dtors_aux>:
 7a0:	02 00 4c 3c 	addis   r2,r12,2
 7a4:	60 77 42 38 	addi    r2,r2,30560
 7a8:	00 00 00 60 	nop
 7ac:	10 81 22 89 	lbz     r9,-32496(r2)
 7b0:	00 00 09 2c 	cmpwi   r9,0
 7b4:	20 00 82 4c 	bnelr
 7b8:	a6 02 08 7c 	mflr    r0
 7bc:	10 00 01 f8 	std     r0,16(r1)
 7c0:	e1 ff 21 f8 	stdu    r1,-32(r1)
 7c4:	00 00 00 60 	nop
 7c8:	28 80 22 e9 	ld      r9,-32728(r2)
 7cc:	00 00 29 2c 	cmpdi   r9,0
 7d0:	14 00 82 41 	beq     7e4 <__do_global_dtors_aux+0x44>
 7d4:	00 00 00 60 	nop
 7d8:	08 81 62 e8 	ld      r3,-32504(r2)
 7dc:	05 fe ff 4b 	bl      5e0 <0000004a.plt_call.__cxa_finalize@@GLIBC_2.17>
 7e0:	18 00 41 e8 	ld      r2,24(r1)
 7e4:	f5 fe ff 4b 	bl      6d8 <deregister_tm_clones+0x8>
 7e8:	20 00 21 38 	addi    r1,r1,32
 7ec:	01 00 20 39 	li      r9,1
 7f0:	00 00 00 60 	nop
 7f4:	10 00 01 e8 	ld      r0,16(r1)
 7f8:	10 81 22 99 	stb     r9,-32496(r2)
 7fc:	a6 03 08 7c 	mtlr    r0
 800:	20 00 80 4e 	blr
 804:	00 00 00 60 	nop
 808:	00 00 00 60 	nop
 80c:	00 00 42 60 	ori     r2,r2,0

0000000000000810 <frame_dummy>:
 810:	02 00 4c 3c 	addis   r2,r12,2
 814:	f0 76 42 38 	addi    r2,r2,30448
 818:	20 ff ff 4b 	b       738 <register_tm_clones+0x8>
 81c:	00 00 00 60 	nop

0000000000000820 <__libc_csu_init>:
 820:	02 00 4c 3c 	addis   r2,r12,2
 824:	e0 76 42 38 	addi    r2,r2,30432
 828:	a6 02 08 7c 	mflr    r0
 82c:	d0 ff 41 fb 	std     r26,-48(r1)
 830:	d8 ff 61 fb 	std     r27,-40(r1)
 834:	e0 ff 81 fb 	std     r28,-32(r1)
 838:	e8 ff a1 fb 	std     r29,-24(r1)
 83c:	f0 ff c1 fb 	std     r30,-16(r1)
 840:	10 00 01 f8 	std     r0,16(r1)
 844:	b1 ff 21 f8 	stdu    r1,-80(r1)
 848:	ff ff a2 3f 	addis   r29,r2,-1
 84c:	ff ff c2 3f 	addis   r30,r2,-1
 850:	a0 7d bd 3b 	addi    r29,r29,32160
 854:	98 7d de 3b 	addi    r30,r30,32152
 858:	50 e8 be 7f 	subf    r29,r30,r29
 85c:	78 1b 7c 7c 	mr      r28,r3
 860:	78 23 9b 7c 	mr      r27,r4
 864:	78 2b ba 7c 	mr      r26,r5
 868:	41 fd ff 4b 	bl      5a8 <_init+0x8>
 86c:	00 00 00 60 	nop
 870:	75 1e bd 7f 	sradi.  r29,r29,3
 874:	48 00 82 41 	beq     8bc <__libc_csu_init+0x9c>
 878:	18 00 41 f8 	std     r2,24(r1)
 87c:	48 00 e1 fb 	std     r31,72(r1)
 880:	f8 ff de 3b 	addi    r30,r30,-8
 884:	00 00 e0 3b 	li      r31,0
 888:	00 00 00 60 	nop
 88c:	00 00 42 60 	ori     r2,r2,0
 890:	09 00 9e e9 	ldu     r12,8(r30)
 894:	78 d3 45 7f 	mr      r5,r26
 898:	78 db 64 7f 	mr      r4,r27
 89c:	78 e3 83 7f 	mr      r3,r28
 8a0:	01 00 ff 3b 	addi    r31,r31,1
 8a4:	a6 03 89 7d 	mtctr   r12
 8a8:	21 04 80 4e 	bctrl
 8ac:	18 00 41 e8 	ld      r2,24(r1)
 8b0:	40 f8 3d 7c 	cmpld   r29,r31
 8b4:	dc ff 82 40 	bne     890 <__libc_csu_init+0x70>
 8b8:	48 00 e1 eb 	ld      r31,72(r1)
 8bc:	50 00 21 38 	addi    r1,r1,80
 8c0:	10 00 01 e8 	ld      r0,16(r1)
 8c4:	d0 ff 41 eb 	ld      r26,-48(r1)
 8c8:	d8 ff 61 eb 	ld      r27,-40(r1)
 8cc:	e0 ff 81 eb 	ld      r28,-32(r1)
 8d0:	e8 ff a1 eb 	ld      r29,-24(r1)
 8d4:	f0 ff c1 eb 	ld      r30,-16(r1)
 8d8:	a6 03 08 7c 	mtlr    r0
 8dc:	20 00 80 4e 	blr
 8e0:	00 00 00 00 	.long 0x0
 8e4:	00 00 00 01 	.long 0x1000000
 8e8:	80 06 00 00 	.long 0x680
 8ec:	00 00 42 60 	ori     r2,r2,0

00000000000008f0 <__libc_csu_fini>:
 8f0:	20 00 80 4e 	blr
	...
 900:	c8 f5 01 00 	.long 0x1f5c8
 904:	00 00 00 00 	.long 0x0

0000000000000908 <__glink_PLTresolve>:
 908:	a6 02 08 7c 	mflr    r0
 90c:	05 00 9f 42 	bcl     20,4*cr7+so,910 <__glink_PLTresolve+0x8>
 910:	a6 02 68 7d 	mflr    r11
 914:	18 00 41 f8 	std     r2,24(r1)
 918:	f0 ff 4b e8 	ld      r2,-16(r11)
 91c:	a6 03 08 7c 	mtlr    r0
 920:	50 60 8b 7d 	subf    r12,r11,r12
 924:	14 5a 62 7d 	add     r11,r2,r11
 928:	d0 ff 0c 38 	addi    r0,r12,-48
 92c:	00 00 8b e9 	ld      r12,0(r11)
 930:	82 f0 00 78 	rldicl  r0,r0,62,2
 934:	a6 03 89 7d 	mtctr   r12
 938:	08 00 6b e9 	ld      r11,8(r11)
 93c:	20 04 80 4e 	bctr

0000000000000940 <__cxa_finalize@plt>:
 940:	c8 ff ff 4b 	b       908 <__glink_PLTresolve>

0000000000000944 <__libc_start_main@plt>:
 944:	c4 ff ff 4b 	b       908 <__glink_PLTresolve>

0000000000000948 <__gmon_start__@plt>:
 948:	c0 ff ff 4b 	b       908 <__glink_PLTresolve>

Disassembly of section .fini:

000000000000094c <_fini>:
 94c:	02 00 4c 3c 	addis   r2,r12,2
 950:	b4 75 42 38 	addi    r2,r2,30132
 954:	a6 02 08 7c 	mflr    r0
 958:	10 00 01 f8 	std     r0,16(r1)
 95c:	a1 ff 21 f8 	stdu    r1,-96(r1)
 960:	60 00 21 38 	addi    r1,r1,96
 964:	10 00 01 e8 	ld      r0,16(r1)
 968:	a6 03 08 7c 	mtlr    r0
 96c:	20 00 80 4e 	blr
